target datalayout = "e-m:e-p270:32:32-p271:32:32-p272:64:64-i64:64-i128:128-f80:128-n8:16:32:64-S128"
target triple = "x86_64-pc-linux-gnu"

%struct.varattrib_1b = type { i8, [0 x i8] }
%struct.anon = type { i32, [0 x i8] }

@.str.1 = private unnamed_addr constant [8 x i8] c"datum.c\00", align 1
@.str.3 = private unnamed_addr constant [22 x i8] c"unexpected typLen: %d\00", align 1
@__func__.datum_image_eq = private unnamed_addr constant [15 x i8] c"datum_image_eq\00", align 1

; Function Attrs: inlinehint nounwind uwtable
define internal ptr @DatumGetCString(i64 noundef %0) #2 {
  %2 = alloca i64, align 8
  store i64 %0, ptr %2, align 8
  %3 = load i64, ptr %2, align 8
  %4 = call ptr @DatumGetPointer(i64 noundef %3)
  ret ptr %4
}

; Function Attrs: inlinehint nounwind uwtable
define internal ptr @DatumGetPointer(i64 noundef %0) #2 {
  %2 = alloca i64, align 8
  store i64 %0, ptr %2, align 8
  %3 = load i64, ptr %2, align 8
  %4 = inttoptr i64 %3 to ptr
  ret ptr %4
}

; Function Attrs: nounwind uwtable
define dso_local zeroext i1 @datum_image_eq(i64 noundef %0, i64 noundef %1, i1 noundef zeroext %2, i32 noundef %3) #0 {
  %5 = alloca i1, align 1
  %6 = alloca i64, align 8
  %7 = alloca i64, align 8
  %8 = alloca i8, align 1
  %9 = alloca i32, align 4
  %10 = alloca i64, align 8
  %11 = alloca i64, align 8
  %12 = alloca i8, align 1
  %13 = alloca ptr, align 8
  %14 = alloca ptr, align 8
  %15 = alloca ptr, align 8
  %16 = alloca ptr, align 8
  %17 = alloca i32, align 4
  store i64 %0, ptr %6, align 8
  store i64 %1, ptr %7, align 8
  %18 = zext i1 %2 to i8
  store i8 %18, ptr %8, align 1
  store i32 %3, ptr %9, align 4
  call void @llvm.lifetime.start.p0(i64 8, ptr %10) #7
  call void @llvm.lifetime.start.p0(i64 8, ptr %11) #7
  call void @llvm.lifetime.start.p0(i64 1, ptr %12) #7
  store i8 1, ptr %12, align 1
  %19 = load i8, ptr %8, align 1, !range !4, !noundef !5
  %20 = trunc i8 %19 to i1
  br i1 %20, label %21, label %26

21:                                               ; preds = %4
  %22 = load i64, ptr %6, align 8
  %23 = load i64, ptr %7, align 8
  %24 = icmp eq i64 %22, %23
  %25 = zext i1 %24 to i8
  store i8 %25, ptr %12, align 1
  br label %153

26:                                               ; preds = %4
  %27 = load i32, ptr %9, align 4
  %28 = icmp sgt i32 %27, 0
  br i1 %28, label %29, label %39

29:                                               ; preds = %26
  %30 = load i64, ptr %6, align 8
  %31 = call ptr @DatumGetPointer(i64 noundef %30)
  %32 = load i64, ptr %7, align 8
  %33 = call ptr @DatumGetPointer(i64 noundef %32)
  %34 = load i32, ptr %9, align 4
  %35 = sext i32 %34 to i64
  %36 = call i32 @memcmp(ptr noundef %31, ptr noundef %33, i64 noundef %35) #9
  %37 = icmp eq i32 %36, 0
  %38 = zext i1 %37 to i8
  store i8 %38, ptr %12, align 1
  br label %152

39:                                               ; preds = %26
  %40 = load i32, ptr %9, align 4
  %41 = icmp eq i32 %40, -1
  br i1 %41, label %42, label %110

42:                                               ; preds = %39
  %43 = load i64, ptr %6, align 8
  %44 = call i64 @toast_raw_datum_size(i64 noundef %43)
  store i64 %44, ptr %10, align 8
  %45 = load i64, ptr %7, align 8
  %46 = call i64 @toast_raw_datum_size(i64 noundef %45)
  store i64 %46, ptr %11, align 8
  %47 = load i64, ptr %10, align 8
  %48 = load i64, ptr %11, align 8
  %49 = icmp ne i64 %47, %48
  br i1 %49, label %50, label %51

50:                                               ; preds = %42
  store i8 0, ptr %12, align 1
  br label %109

51:                                               ; preds = %42
  call void @llvm.lifetime.start.p0(i64 8, ptr %13) #7
  call void @llvm.lifetime.start.p0(i64 8, ptr %14) #7
  %52 = load i64, ptr %6, align 8
  %53 = call ptr @DatumGetPointer(i64 noundef %52)
  %54 = call ptr @pg_detoast_datum_packed(ptr noundef %53)
  store ptr %54, ptr %13, align 8
  %55 = load i64, ptr %7, align 8
  %56 = call ptr @DatumGetPointer(i64 noundef %55)
  %57 = call ptr @pg_detoast_datum_packed(ptr noundef %56)
  store ptr %57, ptr %14, align 8
  %58 = load ptr, ptr %13, align 8
  %59 = getelementptr inbounds nuw %struct.varattrib_1b, ptr %58, i32 0, i32 0
  %60 = load i8, ptr %59, align 1
  %61 = zext i8 %60 to i32
  %62 = and i32 %61, 1
  %63 = icmp eq i32 %62, 1
  br i1 %63, label %64, label %68

64:                                               ; preds = %51
  %65 = load ptr, ptr %13, align 8
  %66 = getelementptr inbounds nuw %struct.varattrib_1b, ptr %65, i32 0, i32 1
  %67 = getelementptr inbounds [0 x i8], ptr %66, i64 0, i64 0
  br label %72

68:                                               ; preds = %51
  %69 = load ptr, ptr %13, align 8
  %70 = getelementptr inbounds nuw %struct.anon, ptr %69, i32 0, i32 1
  %71 = getelementptr inbounds [0 x i8], ptr %70, i64 0, i64 0
  br label %72

72:                                               ; preds = %68, %64
  %73 = phi ptr [ %67, %64 ], [ %71, %68 ]
  %74 = load ptr, ptr %14, align 8
  %75 = getelementptr inbounds nuw %struct.varattrib_1b, ptr %74, i32 0, i32 0
  %76 = load i8, ptr %75, align 1
  %77 = zext i8 %76 to i32
  %78 = and i32 %77, 1
  %79 = icmp eq i32 %78, 1
  br i1 %79, label %80, label %84

80:                                               ; preds = %72
  %81 = load ptr, ptr %14, align 8
  %82 = getelementptr inbounds nuw %struct.varattrib_1b, ptr %81, i32 0, i32 1
  %83 = getelementptr inbounds [0 x i8], ptr %82, i64 0, i64 0
  br label %88

84:                                               ; preds = %72
  %85 = load ptr, ptr %14, align 8
  %86 = getelementptr inbounds nuw %struct.anon, ptr %85, i32 0, i32 1
  %87 = getelementptr inbounds [0 x i8], ptr %86, i64 0, i64 0
  br label %88

88:                                               ; preds = %84, %80
  %89 = phi ptr [ %83, %80 ], [ %87, %84 ]
  %90 = load i64, ptr %10, align 8
  %91 = sub i64 %90, 4
  %92 = call i32 @memcmp(ptr noundef %73, ptr noundef %89, i64 noundef %91) #9
  %93 = icmp eq i32 %92, 0
  %94 = zext i1 %93 to i8
  store i8 %94, ptr %12, align 1
  %95 = load ptr, ptr %13, align 8
  %96 = load i64, ptr %6, align 8
  %97 = inttoptr i64 %96 to ptr
  %98 = icmp ne ptr %95, %97
  br i1 %98, label %99, label %101

99:                                               ; preds = %88
  %100 = load ptr, ptr %13, align 8
  call void @pfree(ptr noundef %100)
  br label %101

101:                                              ; preds = %99, %88
  %102 = load ptr, ptr %14, align 8
  %103 = load i64, ptr %7, align 8
  %104 = inttoptr i64 %103 to ptr
  %105 = icmp ne ptr %102, %104
  br i1 %105, label %106, label %108

106:                                              ; preds = %101
  %107 = load ptr, ptr %14, align 8
  call void @pfree(ptr noundef %107)
  br label %108

108:                                              ; preds = %106, %101
  call void @llvm.lifetime.end.p0(i64 8, ptr %14) #7
  call void @llvm.lifetime.end.p0(i64 8, ptr %13) #7
  br label %109

109:                                              ; preds = %108, %50
  br label %151

110:                                              ; preds = %39
  %111 = load i32, ptr %9, align 4
  %112 = icmp eq i32 %111, -2
  br i1 %112, label %113, label %138

113:                                              ; preds = %110
  call void @llvm.lifetime.start.p0(i64 8, ptr %15) #7
  call void @llvm.lifetime.start.p0(i64 8, ptr %16) #7
  %114 = load i64, ptr %6, align 8
  %115 = call ptr @DatumGetCString(i64 noundef %114)
  store ptr %115, ptr %15, align 8
  %116 = load i64, ptr %7, align 8
  %117 = call ptr @DatumGetCString(i64 noundef %116)
  store ptr %117, ptr %16, align 8
  %118 = load ptr, ptr %15, align 8
  %119 = call i64 @strlen(ptr noundef %118) #9
  %120 = add i64 %119, 1
  store i64 %120, ptr %10, align 8
  %121 = load ptr, ptr %16, align 8
  %122 = call i64 @strlen(ptr noundef %121) #9
  %123 = add i64 %122, 1
  store i64 %123, ptr %11, align 8
  %124 = load i64, ptr %10, align 8
  %125 = load i64, ptr %11, align 8
  %126 = icmp ne i64 %124, %125
  br i1 %126, label %127, label %128

127:                                              ; preds = %113
  store i1 false, ptr %5, align 1
  store i32 1, ptr %17, align 4
  br label %135

128:                                              ; preds = %113
  %129 = load ptr, ptr %15, align 8
  %130 = load ptr, ptr %16, align 8
  %131 = load i64, ptr %10, align 8
  %132 = call i32 @memcmp(ptr noundef %129, ptr noundef %130, i64 noundef %131) #9
  %133 = icmp eq i32 %132, 0
  %134 = zext i1 %133 to i8
  store i8 %134, ptr %12, align 1
  store i32 0, ptr %17, align 4
  br label %135

135:                                              ; preds = %128, %127
  call void @llvm.lifetime.end.p0(i64 8, ptr %16) #7
  call void @llvm.lifetime.end.p0(i64 8, ptr %15) #7
  %136 = load i32, ptr %17, align 4
  switch i32 %136, label %156 [
    i32 0, label %137
  ]

137:                                              ; preds = %135
  br label %150

138:                                              ; preds = %110
  br label %139

139:                                              ; preds = %138
  br i1 true, label %140, label %142

140:                                              ; preds = %139
  %141 = call zeroext i1 @errstart_cold(i32 noundef 21, ptr noundef null) #8
  br i1 %141, label %144, label %147

142:                                              ; preds = %139
  %143 = call zeroext i1 @errstart(i32 noundef 21, ptr noundef null)
  br i1 %143, label %144, label %147

144:                                              ; preds = %142, %140
  %145 = load i32, ptr %9, align 4
  %146 = call i32 (ptr, ...) @errmsg_internal(ptr noundef @.str.3, i32 noundef %145)
  call void @errfinish(ptr noundef @.str.1, i32 noundef 323, ptr noundef @__func__.datum_image_eq)
  br label %147

147:                                              ; preds = %144, %142, %140
  unreachable

148:                                              ; No predecessors!
  br label %149

149:                                              ; preds = %148
  br label %150

150:                                              ; preds = %149, %137
  br label %151

151:                                              ; preds = %150, %109
  br label %152

152:                                              ; preds = %151, %29
  br label %153

153:                                              ; preds = %152, %21
  %154 = load i8, ptr %12, align 1, !range !4, !noundef !5
  %155 = trunc i8 %154 to i1
  store i1 %155, ptr %5, align 1
  store i32 1, ptr %17, align 4
  br label %156

156:                                              ; preds = %153, %135
  call void @llvm.lifetime.end.p0(i64 1, ptr %12) #7
  call void @llvm.lifetime.end.p0(i64 8, ptr %11) #7
  call void @llvm.lifetime.end.p0(i64 8, ptr %10) #7
  %157 = load i1, ptr %5, align 1
  ret i1 %157
}