; Function Attrs: nounwind uwtable
define dso_local zeroext i1 @datum_image_eq(i64 noundef %0, i64 noundef %1, i1 noundef zeroext %2, i32 noundef %3) local_unnamed_addr #0 {
  br i1 %2, label %5, label %7

5:                                                ; preds = %4
  %6 = icmp eq i64 %0, %1
  br label %45

7:                                                ; preds = %4
  %8 = icmp sgt i32 %3, 0
  br i1 %8, label %9, label %14

9:                                                ; preds = %7
  %10 = inttoptr i64 %0 to ptr
  %11 = inttoptr i64 %1 to ptr
  %12 = zext nneg i32 %3 to i64
  %bcmp56 = tail call i32 @bcmp(ptr %10, ptr %11, i64 %12)
  %13 = icmp eq i32 %bcmp56, 0
  br label %45

14:                                               ; preds = %7
  switch i32 %3, label %42 [
    i32 -1, label %15
    i32 -2, label %34
  ]

15:                                               ; preds = %14
  %16 = tail call i64 @toast_raw_datum_size(i64 noundef %0) #9
  %17 = tail call i64 @toast_raw_datum_size(i64 noundef %1) #9
  %.not49 = icmp eq i64 %16, %17
  br i1 %.not49, label %18, label %45

18:                                               ; preds = %15
  %19 = inttoptr i64 %0 to ptr
  %20 = tail call ptr @pg_detoast_datum_packed(ptr noundef %19) #9
  %21 = inttoptr i64 %1 to ptr
  %22 = tail call ptr @pg_detoast_datum_packed(ptr noundef %21) #9
  %23 = load i8, ptr %20, align 1
  %24 = and i8 %23, 1
  %.not50 = icmp eq i8 %24, 0
  %.v = select i1 %.not50, i64 4, i64 1
  %25 = getelementptr inbounds nuw i8, ptr %20, i64 %.v
  %26 = load i8, ptr %22, align 1
  %27 = and i8 %26, 1
  %.not51 = icmp eq i8 %27, 0
  %.v52 = select i1 %.not51, i64 4, i64 1
  %28 = getelementptr inbounds nuw i8, ptr %22, i64 %.v52
  %29 = add i64 %16, -4
  %bcmp53 = tail call i32 @bcmp(ptr nonnull %25, ptr nonnull %28, i64 %29)
  %30 = icmp eq i32 %bcmp53, 0
  %.not54 = icmp eq ptr %20, %19
  br i1 %.not54, label %32, label %31

31:                                               ; preds = %18
  tail call void @pfree(ptr noundef nonnull %20) #9
  br label %32

32:                                               ; preds = %31, %18
  %.not55 = icmp eq ptr %22, %21
  br i1 %.not55, label %45, label %33

33:                                               ; preds = %32
  tail call void @pfree(ptr noundef nonnull %22) #9
  br label %45

34:                                               ; preds = %14
  %35 = inttoptr i64 %0 to ptr
  %36 = inttoptr i64 %1 to ptr
  %37 = tail call i64 @strlen(ptr noundef nonnull dereferenceable(1) %35) #10
  %38 = tail call i64 @strlen(ptr noundef nonnull dereferenceable(1) %36) #10
  %.not = icmp eq i64 %37, %38
  br i1 %.not, label %39, label %45

39:                                               ; preds = %34
  %40 = add i64 %37, 1
  %bcmp = tail call i32 @bcmp(ptr nonnull %35, ptr nonnull %36, i64 %40)
  %41 = icmp eq i32 %bcmp, 0
  br label %45

42:                                               ; preds = %14
  %43 = tail call zeroext i1 @errstart_cold(i32 noundef 21, ptr noundef null) #8
  tail call void @llvm.assume(i1 %43)
  %44 = tail call i32 (ptr, ...) @errmsg_internal(ptr noundef nonnull @.str.3, i32 noundef %3) #9
  tail call void @errfinish(ptr noundef nonnull @.str.1, i32 noundef 323, ptr noundef nonnull @__func__.datum_image_eq) #9
  unreachable

45:                                               ; preds = %39, %34, %5, %9, %15, %33, %32
  %.1 = phi i1 [ %6, %5 ], [ %13, %9 ], [ false, %15 ], [ %30, %33 ], [ %30, %32 ], [ %41, %39 ], [ false, %34 ]
  ret i1 %.1
}